target datalayout = "e-m:e-p270:32:32-p271:32:32-p272:64:64-i64:64-i128:128-f80:128-n8:16:32:64-S128"
target triple = "x86_64-pc-linux-gnu"

%struct.tiff_t = type { ptr, i32, i32, i16, i16, i16, i32, ptr, ptr, ptr }

; Function Attrs: inlinehint nounwind uwtable
define internal i32 @_read_chunky_8(ptr noundef %0) #4 {
  %2 = alloca i32, align 4
  %3 = alloca ptr, align 8
  %4 = alloca i32, align 4
  %5 = alloca i32, align 4
  %6 = alloca ptr, align 8
  %7 = alloca ptr, align 8
  %8 = alloca i32, align 4
  store ptr %0, ptr %3, align 8, !tbaa !90
  call void @llvm.lifetime.start.p0(i64 4, ptr %4) #8
  store i32 0, ptr %4, align 4, !tbaa !86
  br label %9

9:                                                ; preds = %103, %1
  %10 = load i32, ptr %4, align 4, !tbaa !86
  %11 = load ptr, ptr %3, align 8, !tbaa !90
  %12 = getelementptr inbounds nuw %struct.tiff_t, ptr %11, i32 0, i32 2
  %13 = load i32, ptr %12, align 4, !tbaa !73
  %14 = icmp ult i32 %10, %13
  br i1 %14, label %16, label %15

15:                                               ; preds = %9
  store i32 2, ptr %5, align 4
  br label %106

16:                                               ; preds = %9
  call void @llvm.lifetime.start.p0(i64 8, ptr %6) #8
  %17 = load ptr, ptr %3, align 8, !tbaa !90
  %18 = getelementptr inbounds nuw %struct.tiff_t, ptr %17, i32 0, i32 9
  %19 = load ptr, ptr %18, align 8, !tbaa !83
  store ptr %19, ptr %6, align 8, !tbaa !11
  call void @llvm.lifetime.start.p0(i64 8, ptr %7) #8
  %20 = load ptr, ptr %3, align 8, !tbaa !90
  %21 = getelementptr inbounds nuw %struct.tiff_t, ptr %20, i32 0, i32 8
  %22 = load ptr, ptr %21, align 8, !tbaa !82
  %23 = load i32, ptr %4, align 4, !tbaa !86
  %24 = zext i32 %23 to i64
  %25 = mul i64 4, %24
  %26 = load ptr, ptr %3, align 8, !tbaa !90
  %27 = getelementptr inbounds nuw %struct.tiff_t, ptr %26, i32 0, i32 1
  %28 = load i32, ptr %27, align 8, !tbaa !72
  %29 = zext i32 %28 to i64
  %30 = mul i64 %25, %29
  %31 = getelementptr inbounds nuw float, ptr %22, i64 %30
  store ptr %31, ptr %7, align 8, !tbaa !95
  %32 = load ptr, ptr %3, align 8, !tbaa !90
  %33 = getelementptr inbounds nuw %struct.tiff_t, ptr %32, i32 0, i32 0
  %34 = load ptr, ptr %33, align 8, !tbaa !35
  %35 = load ptr, ptr %6, align 8, !tbaa !11
  %36 = load i32, ptr %4, align 4, !tbaa !86
  %37 = call i32 @TIFFReadScanline(ptr noundef %34, ptr noundef %35, i32 noundef %36, i16 noundef zeroext 0)
  %38 = icmp eq i32 %37, -1
  br i1 %38, label %39, label %40

39:                                               ; preds = %16
  store i32 -1, ptr %2, align 4
  store i32 1, ptr %5, align 4
  br label %100

40:                                               ; preds = %16
  call void @llvm.lifetime.start.p0(i64 4, ptr %8) #8
  store i32 0, ptr %8, align 4, !tbaa !86
  br label %41

41:                                               ; preds = %87, %40
  %42 = load i32, ptr %8, align 4, !tbaa !86
  %43 = load ptr, ptr %3, align 8, !tbaa !90
  %44 = getelementptr inbounds nuw %struct.tiff_t, ptr %43, i32 0, i32 1
  %45 = load i32, ptr %44, align 8, !tbaa !72
  %46 = icmp ult i32 %42, %45
  br i1 %46, label %48, label %47

47:                                               ; preds = %41
  store i32 5, ptr %5, align 4
  call void @llvm.lifetime.end.p0(i64 4, ptr %8) #8
  br label %99

48:                                               ; preds = %41
  %49 = load ptr, ptr %6, align 8, !tbaa !11
  %50 = getelementptr inbounds i8, ptr %49, i64 0
  %51 = load i8, ptr %50, align 1, !tbaa !15
  %52 = uitofp i8 %51 to float
  %53 = fmul reassoc nsz arcp contract afn float %52, 0x3F70101020000000
  %54 = load ptr, ptr %7, align 8, !tbaa !95
  %55 = getelementptr inbounds float, ptr %54, i64 0
  store float %53, ptr %55, align 4, !tbaa !96
  %56 = load ptr, ptr %3, align 8, !tbaa !90
  %57 = getelementptr inbounds nuw %struct.tiff_t, ptr %56, i32 0, i32 4
  %58 = load i16, ptr %57, align 2, !tbaa !75
  %59 = zext i16 %58 to i32
  %60 = icmp slt i32 %59, 3
  br i1 %60, label %61, label %69

61:                                               ; preds = %48
  %62 = load ptr, ptr %7, align 8, !tbaa !95
  %63 = getelementptr inbounds float, ptr %62, i64 0
  %64 = load float, ptr %63, align 4, !tbaa !96
  %65 = load ptr, ptr %7, align 8, !tbaa !95
  %66 = getelementptr inbounds float, ptr %65, i64 2
  store float %64, ptr %66, align 4, !tbaa !96
  %67 = load ptr, ptr %7, align 8, !tbaa !95
  %68 = getelementptr inbounds float, ptr %67, i64 1
  store float %64, ptr %68, align 4, !tbaa !96
  br label %84

69:                                               ; preds = %48
  %70 = load ptr, ptr %6, align 8, !tbaa !11
  %71 = getelementptr inbounds i8, ptr %70, i64 1
  %72 = load i8, ptr %71, align 1, !tbaa !15
  %73 = uitofp i8 %72 to float
  %74 = fmul reassoc nsz arcp contract afn float %73, 0x3F70101020000000
  %75 = load ptr, ptr %7, align 8, !tbaa !95
  %76 = getelementptr inbounds float, ptr %75, i64 1
  store float %74, ptr %76, align 4, !tbaa !96
  %77 = load ptr, ptr %6, align 8, !tbaa !11
  %78 = getelementptr inbounds i8, ptr %77, i64 2
  %79 = load i8, ptr %78, align 1, !tbaa !15
  %80 = uitofp i8 %79 to float
  %81 = fmul reassoc nsz arcp contract afn float %80, 0x3F70101020000000
  %82 = load ptr, ptr %7, align 8, !tbaa !95
  %83 = getelementptr inbounds float, ptr %82, i64 2
  store float %81, ptr %83, align 4, !tbaa !96
  br label %84

84:                                               ; preds = %69, %61
  %85 = load ptr, ptr %7, align 8, !tbaa !95
  %86 = getelementptr inbounds float, ptr %85, i64 3
  store float 0.000000e+00, ptr %86, align 4, !tbaa !96
  br label %87

87:                                               ; preds = %84
  %88 = load i32, ptr %8, align 4, !tbaa !86
  %89 = add i32 %88, 1
  store i32 %89, ptr %8, align 4, !tbaa !86
  %90 = load ptr, ptr %3, align 8, !tbaa !90
  %91 = getelementptr inbounds nuw %struct.tiff_t, ptr %90, i32 0, i32 4
  %92 = load i16, ptr %91, align 2, !tbaa !75
  %93 = zext i16 %92 to i32
  %94 = load ptr, ptr %6, align 8, !tbaa !11
  %95 = sext i32 %93 to i64
  %96 = getelementptr inbounds i8, ptr %94, i64 %95
  store ptr %96, ptr %6, align 8, !tbaa !11
  %97 = load ptr, ptr %7, align 8, !tbaa !95
  %98 = getelementptr inbounds float, ptr %97, i64 4
  store ptr %98, ptr %7, align 8, !tbaa !95
  br label %41

99:                                               ; preds = %47
  store i32 0, ptr %5, align 4
  br label %100

100:                                              ; preds = %99, %39
  call void @llvm.lifetime.end.p0(i64 8, ptr %7) #8
  call void @llvm.lifetime.end.p0(i64 8, ptr %6) #8
  %101 = load i32, ptr %5, align 4
  switch i32 %101, label %106 [
    i32 0, label %102
  ]

102:                                              ; preds = %100
  br label %103

103:                                              ; preds = %102
  %104 = load i32, ptr %4, align 4, !tbaa !86
  %105 = add i32 %104, 1
  store i32 %105, ptr %4, align 4, !tbaa !86
  br label %9

106:                                              ; preds = %100, %15
  call void @llvm.lifetime.end.p0(i64 4, ptr %4) #8
  %107 = load i32, ptr %5, align 4
  switch i32 %107, label %111 [
    i32 2, label %108
    i32 1, label %109
  ]

108:                                              ; preds = %106
  store i32 1, ptr %2, align 4
  br label %109

109:                                              ; preds = %108, %106
  %110 = load i32, ptr %2, align 4
  ret i32 %110

111:                                              ; preds = %106
  unreachable
}