; Function Attrs: inlinehint nounwind uwtable
define internal fastcc range(i32 -1, 2) i32 @_read_chunky_8(ptr noundef nonnull readonly captures(none) %0) unnamed_addr #6 {
  %2 = getelementptr inbounds nuw i8, ptr %0, i64 48
  %3 = getelementptr inbounds nuw i8, ptr %0, i64 12
  %4 = load i32, ptr %3, align 4, !tbaa !69
  %.not3539.not = icmp eq i32 %4, 0
  br i1 %.not3539.not, label %.critedge, label %.lr.ph42

.lr.ph42:                                         ; preds = %1
  %5 = getelementptr inbounds nuw i8, ptr %0, i64 40
  %6 = getelementptr inbounds nuw i8, ptr %0, i64 8
  %7 = getelementptr inbounds nuw i8, ptr %0, i64 18
  %.pre = load i32, ptr %6, align 8, !tbaa !68
  br label %8

8:                                                ; preds = %.lr.ph42, %._crit_edge
  %9 = phi i32 [ %.pre, %.lr.ph42 ], [ %16, %._crit_edge ]
  %indvars.iv = phi i64 [ 0, %.lr.ph42 ], [ %indvars.iv.next, %._crit_edge ]
  %10 = load ptr, ptr %2, align 8, !tbaa !79
  %11 = load ptr, ptr %5, align 8, !tbaa !78
  %12 = load ptr, ptr %0, align 8, !tbaa !31
  %13 = trunc nuw i64 %indvars.iv to i32
  %14 = tail call i32 @TIFFReadScanline(ptr noundef %12, ptr noundef %10, i32 noundef %13, i16 noundef zeroext 0) #11
  %.not = icmp eq i32 %14, -1
  br i1 %.not, label %.critedge, label %15

15:                                               ; preds = %8
  %16 = load i32, ptr %6, align 8, !tbaa !68
  %.not45 = icmp eq i32 %16, 0
  br i1 %.not45, label %._crit_edge, label %.lr.ph

.lr.ph:                                           ; preds = %15
  %17 = shl nuw nsw i64 %indvars.iv, 2
  %18 = zext i32 %9 to i64
  %19 = mul i64 %17, %18
  %20 = getelementptr inbounds nuw float, ptr %11, i64 %19
  %21 = load i16, ptr %7, align 2, !tbaa !71
  %22 = icmp ult i16 %21, 3
  %23 = zext i16 %21 to i64
  br i1 %22, label %.lr.ph.split.us, label %.lr.ph.split

.lr.ph.split.us:                                  ; preds = %.lr.ph, %.lr.ph.split.us
  %.038.us = phi i32 [ %30, %.lr.ph.split.us ], [ 0, %.lr.ph ]
  %.02937.us = phi ptr [ %32, %.lr.ph.split.us ], [ %20, %.lr.ph ]
  %.03036.us = phi ptr [ %31, %.lr.ph.split.us ], [ %10, %.lr.ph ]
  %24 = load i8, ptr %.03036.us, align 1, !tbaa !6
  %25 = uitofp i8 %24 to float
  %26 = fmul reassoc nsz arcp contract afn float %25, 0x3F70101020000000
  store float %26, ptr %.02937.us, align 4, !tbaa !85
  %27 = getelementptr inbounds nuw i8, ptr %.02937.us, i64 8
  store float %26, ptr %27, align 4, !tbaa !85
  %28 = getelementptr inbounds nuw i8, ptr %.02937.us, i64 4
  store float %26, ptr %28, align 4, !tbaa !85
  %29 = getelementptr inbounds nuw i8, ptr %.02937.us, i64 12
  store float 0.000000e+00, ptr %29, align 4, !tbaa !85
  %30 = add nuw i32 %.038.us, 1
  %31 = getelementptr inbounds nuw i8, ptr %.03036.us, i64 %23
  %32 = getelementptr inbounds nuw i8, ptr %.02937.us, i64 16
  %exitcond47.not = icmp eq i32 %30, %16
  br i1 %exitcond47.not, label %._crit_edge, label %.lr.ph.split.us

.lr.ph.split:                                     ; preds = %.lr.ph, %.lr.ph.split
  %.038 = phi i32 [ %47, %.lr.ph.split ], [ 0, %.lr.ph ]
  %.02937 = phi ptr [ %49, %.lr.ph.split ], [ %20, %.lr.ph ]
  %.03036 = phi ptr [ %48, %.lr.ph.split ], [ %10, %.lr.ph ]
  %33 = load i8, ptr %.03036, align 1, !tbaa !6
  %34 = uitofp i8 %33 to float
  %35 = fmul reassoc nsz arcp contract afn float %34, 0x3F70101020000000
  store float %35, ptr %.02937, align 4, !tbaa !85
  %36 = getelementptr inbounds nuw i8, ptr %.03036, i64 1
  %37 = load i8, ptr %36, align 1, !tbaa !6
  %38 = uitofp i8 %37 to float
  %39 = fmul reassoc nsz arcp contract afn float %38, 0x3F70101020000000
  %40 = getelementptr inbounds nuw i8, ptr %.02937, i64 4
  store float %39, ptr %40, align 4, !tbaa !85
  %41 = getelementptr inbounds nuw i8, ptr %.03036, i64 2
  %42 = load i8, ptr %41, align 1, !tbaa !6
  %43 = uitofp i8 %42 to float
  %44 = fmul reassoc nsz arcp contract afn float %43, 0x3F70101020000000
  %45 = getelementptr inbounds nuw i8, ptr %.02937, i64 8
  store float %44, ptr %45, align 4, !tbaa !85
  %46 = getelementptr inbounds nuw i8, ptr %.02937, i64 12
  store float 0.000000e+00, ptr %46, align 4, !tbaa !85
  %47 = add nuw i32 %.038, 1
  %48 = getelementptr inbounds nuw i8, ptr %.03036, i64 %23
  %49 = getelementptr inbounds nuw i8, ptr %.02937, i64 16
  %exitcond.not = icmp eq i32 %47, %16
  br i1 %exitcond.not, label %._crit_edge, label %.lr.ph.split

._crit_edge:                                      ; preds = %.lr.ph.split, %.lr.ph.split.us, %15
  %indvars.iv.next = add nuw nsw i64 %indvars.iv, 1
  %50 = load i32, ptr %3, align 4, !tbaa !69
  %51 = zext i32 %50 to i64
  %.not35 = icmp samesign ult i64 %indvars.iv.next, %51
  br i1 %.not35, label %8, label %.critedge

.critedge:                                        ; preds = %._crit_edge, %8, %1
  %spec.select = phi i32 [ 1, %1 ], [ -1, %8 ], [ 1, %._crit_edge ]
  ret i32 %spec.select
}